(dp1
S'dend[28]'
p2
(dp3
S'points'
p4
(lp5
(lp6
F-165.1300048828125
aF102.97000122070312
aF-35.25
aF1.8799999952316284
aa(lp7
F-167.1300048828125
aF105.34999847412109
aF-37.520000457763672
aF1.8799999952316284
aa(lp8
F-168.50999450683594
aF107.22000122070312
aF-37.520000457763672
aF1.8799999952316284
aa(lp9
F-169.3800048828125
aF109.34999847412109
aF-37.520000457763672
aF1.8799999952316284
aasS'name'
p10
S'dend[28]'
p11
sS'parent'
p12
S'dend[2]'
p13
sS'children'
p14
(lp15
S'dend[29]'
p16
assS'dend[12]'
p17
(dp18
g4
(lp19
(lp20
F-150.3800048828125
aF131.47000122070312
aF-36.380001068115234
aF0.87999999523162842
aa(lp21
F-148.8800048828125
aF131.22000122070312
aF-36.380001068115234
aF0.87999999523162842
aa(lp22
F-146.8800048828125
aF130.97000122070312
aF-36.380001068115234
aF0.87999999523162842
aasg10
S'dend[12]'
p23
sg12
S'dend[11]'
p24
sg14
(lp25
ssS'dend[43]'
p26
(dp27
g4
(lp28
(lp29
F-183.00999450683594
aF132.47000122070312
aF-40.930000305175781
aF1.25
aa(lp30
F-186.75999450683594
aF134.10000610351562
aF-42.069999694824219
aF1.25
aa(lp31
F-187.8800048828125
aF135.35000610351562
aF-42.069999694824219
aF1.25
aasg10
S'dend[43]'
p32
sg12
S'dend[35]'
p33
sg14
(lp34
S'dend[47]'
p35
aS'dend[44]'
p36
assS'dend[63]'
p37
(dp38
g4
(lp39
(lp40
F-201.75999450683594
aF122.34999847412109
aF-42.069999694824219
aF1.25
aa(lp41
F-201.75999450683594
aF124.34999847412109
aF-42.069999694824219
aF1.25
aa(lp42
F-201.75999450683594
aF126.84999847412109
aF-42.069999694824219
aF1.25
aa(lp43
F-202.1300048828125
aF127.59999847412109
aF-42.069999694824219
aF1.25
aasg10
S'dend[63]'
p44
sg12
S'dend[59]'
p45
sg14
(lp46
S'dend[65]'
p47
aS'dend[64]'
p48
assS'dend[92]'
p49
(dp50
g4
(lp51
(lp52
F-234.75999450683594
aF102.97000122070312
aF-54.580001831054688
aF1.3799999952316284
aa(lp53
F-235.75999450683594
aF100.09999847412109
aF-54.580001831054688
aF1.3799999952316284
aa(lp54
F-236.25999450683594
aF98.349998474121094
aF-55.709999084472656
aF1.3799999952316284
aasg10
S'dend[92]'
p55
sg12
S'dend[90]'
p56
sg14
(lp57
S'dend[94]'
p58
aS'dend[93]'
p59
assS'dend[25]'
p60
(dp61
g4
(lp62
(lp63
F-152.6300048828125
aF115.97000122070312
aF-29.559999465942383
aF1
aa(lp64
F-150.1300048828125
aF115.22000122070312
aF-30.700000762939453
aF1
aa(lp65
F-148.1300048828125
aF114.59999847412109
aF-29.559999465942383
aF1
aa(lp66
F-147.3800048828125
aF114.22000122070312
aF-28.420000076293945
aF1
aasg10
S'dend[25]'
p67
sg12
S'dend[17]'
p68
sg14
(lp69
S'dend[27]'
p70
aS'dend[26]'
p71
assS'dend[48]'
p72
(dp73
g4
(lp74
(lp75
F-198.8800048828125
aF136.85000610351562
aF-43.209999084472656
aF1.25
aa(lp76
F-201.1300048828125
aF139.10000610351562
aF-45.479999542236328
aF1.25
aa(lp77
F-202.25999450683594
aF139.97000122070312
aF-45.479999542236328
aF1.25
aa(lp78
F-202.75999450683594
aF141.10000610351562
aF-46.619998931884766
aF1.25
aa(lp79
F-204.25999450683594
aF142.72000122070312
aF-46.619998931884766
aF1.25
aa(lp80
F-205.50999450683594
aF144.10000610351562
aF-46.619998931884766
aF1.25
aa(lp81
F-206.6300048828125
aF144.60000610351562
aF-46.619998931884766
aF1.25
aa(lp82
F-208.6300048828125
aF145.10000610351562
aF-46.619998931884766
aF1.25
aasg10
S'dend[48]'
p83
sg12
S'dend[47]'
p84
sg14
(lp85
ssS'dend[55]'
p86
(dp87
g4
(lp88
(lp89
F-165.3800048828125
aF92.470001220703125
aF-35.25
aF2.121999979019165
aa(lp90
F-168.6300048828125
aF93.849998474121094
aF-36.380001068115234
aF2.121999979019165
aa(lp91
F-170.25999450683594
aF94.220001220703125
aF-36.380001068115234
aF2.121999979019165
aa(lp92
F-172.8800048828125
aF95.220001220703125
aF-36.380001068115234
aF2.121999979019165
aa(lp93
F-175.8800048828125
aF96.099998474121094
aF-38.659999847412109
aF2.121999979019165
aa(lp94
F-178.8800048828125
aF96.599998474121094
aF-38.659999847412109
aF2.121999979019165
aasg10
S'dend[55]'
p95
sg12
S'dend[1]'
p96
sg14
(lp97
S'dend[56]'
p98
assS'dend[88]'
p99
(dp100
g4
(lp101
(lp102
F-226.00999450683594
aF111.84999847412109
aF-53.439998626708984
aF1.3799999952316284
aa(lp103
F-227.50999450683594
aF110.84999847412109
aF-53.439998626708984
aF1.3799999952316284
aa(lp104
F-229.50999450683594
aF109.72000122070312
aF-54.580001831054688
aF1.3799999952316284
aa(lp105
F-231.50999450683594
aF109.84999847412109
aF-55.709999084472656
aF1.3799999952316284
aa(lp106
F-233.3800048828125
aF110.72000122070312
aF-55.709999084472656
aF1.3799999952316284
aa(lp107
F-235.75999450683594
aF110.72000122070312
aF-56.849998474121094
aF1.3799999952316284
aa(lp108
F-237.3800048828125
aF110.22000122070312
aF-56.849998474121094
aF1.3799999952316284
aa(lp109
F-239.00999450683594
aF108.97000122070312
aF-56.849998474121094
aF1.3799999952316284
aa(lp110
F-239.75999450683594
aF108.34999847412109
aF-56.849998474121094
aF1.3799999952316284
aasg10
S'dend[88]'
p111
sg12
S'dend[84]'
p112
sg14
(lp113
ssS'dend[72]'
p114
(dp115
g4
(lp116
(lp117
F-192.3800048828125
aF130.22000122070312
aF-38.659999847412109
aF1.3550000190734863
aa(lp118
F-190.8800048828125
aF131.10000610351562
aF-38.659999847412109
aF1.3550000190734863
aa(lp119
F-188.8800048828125
aF131.60000610351562
aF-38.659999847412109
aF1.3550000190734863
aa(lp120
F-186.6300048828125
aF132.72000122070312
aF-38.659999847412109
aF1.3550000190734863
aa(lp121
F-185.00999450683594
aF133.85000610351562
aF-38.659999847412109
aF1.3550000190734863
aa(lp122
F-184.6300048828125
aF134.47000122070312
aF-38.659999847412109
aF1.3550000190734863
aasg10
S'dend[72]'
p123
sg12
S'dend[71]'
p124
sg14
(lp125
ssS'dend[80]'
p126
(dp127
g4
(lp128
(lp129
F-211.3800048828125
aF113.97000122070312
aF-45.479999542236328
aF1.3799999952316284
aa(lp130
F-213.25999450683594
aF114.22000122070312
aF-47.75
aF1.3799999952316284
aa(lp131
F-216.1300048828125
aF113.59999847412109
aF-47.75
aF1.3799999952316284
aa(lp132
F-218.6300048828125
aF114.59999847412109
aF-47.75
aF1.3799999952316284
aa(lp133
F-221.00999450683594
aF116.34999847412109
aF-50.029998779296875
aF1.3799999952316284
aasg10
S'dend[80]'
p134
sg12
S'dend[78]'
p135
sg14
(lp136
S'dend[82]'
p137
aS'dend[81]'
p138
assS'dend[3]'
p139
(dp140
g4
(lp141
(lp142
F-165.1300048828125
aF102.97000122070312
aF-35.25
aF1.5659999847412109
aa(lp143
F-164.6300048828125
aF104.22000122070312
aF-35.25
aF1.5659999847412109
aa(lp144
F-162.8800048828125
aF106.22000122070312
aF-35.25
aF1.5659999847412109
aa(lp145
F-162.3800048828125
aF108.97000122070312
aF-35.25
aF1.5659999847412109
aa(lp146
F-161.3800048828125
aF109.84999847412109
aF-35.25
aF1.5659999847412109
aasg10
S'dend[3]'
p147
sg12
S'dend[2]'
p148
sg14
(lp149
S'dend[17]'
p150
aS'dend[4]'
p151
assS'dend[13]'
p152
(dp153
g4
(lp154
(lp155
F-150.3800048828125
aF131.47000122070312
aF-36.380001068115234
aF0.87999999523162842
aa(lp156
F-149.8800048828125
aF133.22000122070312
aF-36.380001068115234
aF0.87999999523162842
aa(lp157
F-148.3800048828125
aF135.72000122070312
aF-36.380001068115234
aF0.87999999523162842
aa(lp158
F-147.50999450683594
aF136.85000610351562
aF-36.380001068115234
aF0.87999999523162842
aasg10
S'dend[13]'
p159
sg12
S'dend[11]'
p160
sg14
(lp161
ssS'dend[23]'
p162
(dp163
g4
(lp164
(lp165
F-140.75999450683594
aF129.10000610351562
aF-28.420000076293945
aF0.37999999523162842
aa(lp166
F-139.00999450683594
aF128.85000610351562
aF-28.420000076293945
aF0.37999999523162842
aa(lp167
F-136.6300048828125
aF128.35000610351562
aF-28.420000076293945
aF0.37999999523162842
aa(lp168
F-133.50999450683594
aF127.59999847412109
aF-28.420000076293945
aF0.37999999523162842
aasg10
S'dend[23]'
p169
sg12
S'dend[21]'
p170
sg14
(lp171
ssS'dend[42]'
p172
(dp173
g4
(lp174
(lp175
F-181.6300048828125
aF140.85000610351562
aF-42.069999694824219
aF1.25
aa(lp176
F-179.00999450683594
aF141.72000122070312
aF-40.930000305175781
aF1.25
aa(lp177
F-176.1300048828125
aF142.72000122070312
aF-40.930000305175781
aF1.25
aa(lp178
F-173.75999450683594
aF144.10000610351562
aF-40.930000305175781
aF1.25
aa(lp179
F-171.8800048828125
aF145.10000610351562
aF-38.659999847412109
aF1.25
aa(lp180
F-169.3800048828125
aF146.72000122070312
aF-38.659999847412109
aF1.25
aa(lp181
F-167.1300048828125
aF148.35000610351562
aF-38.659999847412109
aF1.25
aa(lp182
F-164.75999450683594
aF148.85000610351562
aF-37.520000457763672
aF1.25
aa(lp183
F-162.1300048828125
aF149.10000610351562
aF-37.520000457763672
aF1.25
aa(lp184
F-159.50999450683594
aF148.35000610351562
aF-36.380001068115234
aF1.25
aa(lp185
F-157.6300048828125
aF147.35000610351562
aF-36.380001068115234
aF1.25
aa(lp186
F-156.50999450683594
aF145.85000610351562
aF-36.380001068115234
aF1.25
aa(lp187
F-154.3800048828125
aF144.22000122070312
aF-36.380001068115234
aF1.25
aa(lp188
F-153.50999450683594
aF143.60000610351562
aF-36.380001068115234
aF1.25
aasg10
S'dend[42]'
p189
sg12
S'dend[36]'
p190
sg14
(lp191
ssS'dend[98]'
p192
(dp193
g4
(lp194
(lp195
F-190.25999450683594
aF104.22000122070312
aF-42.069999694824219
aF1.25
aa(lp196
F-192.75999450683594
aF102.97000122070312
aF-42.069999694824219
aF1.25
aa(lp197
F-197.1300048828125
aF102.47000122070312
aF-42.069999694824219
aF1.25
aa(lp198
F-200.1300048828125
aF102.47000122070312
aF-42.069999694824219
aF1.25
aa(lp199
F-202.1300048828125
aF103.34999847412109
aF-42.069999694824219
aF1.25
aa(lp200
F-204.25999450683594
aF104.97000122070312
aF-42.069999694824219
aF1.25
aa(lp201
F-206.75999450683594
aF107.84999847412109
aF-42.069999694824219
aF1.25
aa(lp202
F-207.8800048828125
aF109.22000122070312
aF-42.069999694824219
aF1.25
aa(lp203
F-208.3800048828125
aF110.97000122070312
aF-42.069999694824219
aF1.25
aa(lp204
F-208.6300048828125
aF112.97000122070312
aF-42.069999694824219
aF1.25
aa(lp205
F-209.3800048828125
aF114.97000122070312
aF-42.069999694824219
aF1.25
aa(lp206
F-209.75999450683594
aF115.84999847412109
aF-42.069999694824219
aF1.25
aasg10
S'dend[98]'
p207
sg12
S'dend[56]'
p208
sg14
(lp209
S'dend[100]'
p210
aS'dend[99]'
p211
assS'dend[74]'
p212
(dp213
g4
(lp214
(lp215
F-191.3800048828125
aF124.47000122070312
aF-36.380001068115234
aF1.25
aa(lp216
F-189.50999450683594
aF124.47000122070312
aF-36.380001068115234
aF1.25
aa(lp217
F-188.3800048828125
aF124.59999847412109
aF-36.380001068115234
aF1.25
aasg10
S'dend[74]'
p218
sg12
S'dend[70]'
p219
sg14
(lp220
S'dend[76]'
p221
aS'dend[75]'
p222
assS'dend[24]'
p223
(dp224
g4
(lp225
(lp226
F-147.50999450683594
aF123.97000122070312
aF-29.559999465942383
aF0.54000002145767212
aa(lp227
F-147.75999450683594
aF126.84999847412109
aF-29.559999465942383
aF0.54000002145767212
aa(lp228
F-148.3800048828125
aF128.47000122070312
aF-29.559999465942383
aF0.54000002145767212
aa(lp229
F-150.50999450683594
aF129.72000122070312
aF-28.420000076293945
aF0.54000002145767212
aa(lp230
F-153.00999450683594
aF131.22000122070312
aF-28.420000076293945
aF0.54000002145767212
aa(lp231
F-154.00999450683594
aF132.47000122070312
aF-30.700000762939453
aF0.54000002145767212
aa(lp232
F-155.6300048828125
aF132.97000122070312
aF-30.700000762939453
aF0.54000002145767212
aa(lp233
F-159.50999450683594
aF132.22000122070312
aF-30.700000762939453
aF0.54000002145767212
aa(lp234
F-160.6300048828125
aF131.97000122070312
aF-30.700000762939453
aF0.54000002145767212
aasg10
S'dend[24]'
p235
sg12
S'dend[20]'
p236
sg14
(lp237
ssS'dend[93]'
p238
(dp239
g4
(lp240
(lp241
F-236.25999450683594
aF98.349998474121094
aF-55.709999084472656
aF1.0640000104904175
aa(lp242
F-235.25999450683594
aF96.349998474121094
aF-52.299999237060547
aF1.0640000104904175
aa(lp243
F-234.3800048828125
aF94.720001220703125
aF-52.299999237060547
aF1.0640000104904175
aa(lp244
F-233.75999450683594
aF93.349998474121094
aF-52.299999237060547
aF1.0640000104904175
aa(lp245
F-233.3800048828125
aF90.970001220703125
aF-52.299999237060547
aF1.0640000104904175
aa(lp246
F-233.3800048828125
aF90.720001220703125
aF-52.299999237060547
aF1.0640000104904175
aasg10
S'dend[93]'
p247
sg12
S'dend[92]'
p248
sg14
(lp249
ssS'dend[32]'
p250
(dp251
g4
(lp252
(lp253
F-176.8800048828125
aF121.72000122070312
aF-42.069999694824219
aF0.5
aa(lp254
F-178.3800048828125
aF121.33000183105469
aF-44.340000152587891
aF0.5
aa(lp255
F-180.8800048828125
aF121.83000183105469
aF-44.340000152587891
aF0.5
aa(lp256
F-183.00999450683594
aF122.33000183105469
aF-45.479999542236328
aF0.5
aa(lp257
F-184.6300048828125
aF123.19999694824219
aF-47.75
aF0.5
aa(lp258
F-186.75999450683594
aF124.08000183105469
aF-48.889999389648438
aF0.5
aa(lp259
F-189.00999450683594
aF125.58000183105469
aF-48.889999389648438
aF0.5
aasg10
S'dend[32]'
p260
sg12
S'dend[31]'
p261
sg14
(lp262
S'dend[34]'
p263
aS'dend[33]'
p264
assS'dend[52]'
p265
(dp266
g4
(lp267
(lp268
F-184.00999450683594
aF114.22000122070312
aF-40.930000305175781
aF1.3339999914169312
aa(lp269
F-187.3800048828125
aF114.47000122070312
aF-44.340000152587891
aF1.3339999914169312
aa(lp270
F-189.1300048828125
aF114.72000122070312
aF-44.340000152587891
aF1.3339999914169312
aasg10
S'dend[52]'
p271
sg12
S'dend[50]'
p272
sg14
(lp273
S'dend[54]'
p274
aS'dend[53]'
p275
assS'dend[73]'
p276
(dp277
g4
(lp278
(lp279
F-192.3800048828125
aF130.22000122070312
aF-38.659999847412109
aF1.25
aa(lp280
F-192.6300048828125
aF131.35000610351562
aF-39.790000915527344
aF1.25
aa(lp281
F-193.6300048828125
aF132.60000610351562
aF-39.790000915527344
aF1.25
aa(lp282
F-195.00999450683594
aF134.35000610351562
aF-40.930000305175781
aF1.25
aa(lp283
F-198.00999450683594
aF134.97000122070312
aF-40.930000305175781
aF1.25
aa(lp284
F-199.75999450683594
aF135.60000610351562
aF-40.930000305175781
aF1.25
aasg10
S'dend[73]'
p285
sg12
S'dend[71]'
p286
sg14
(lp287
ssS'dend[83]'
p288
(dp289
g4
(lp290
(lp291
F-201.25999450683594
aF107.22000122070312
aF-43.209999084472656
aF1.5670000314712524
aa(lp292
F-202.6300048828125
aF105.84999847412109
aF-44.340000152587891
aF1.5670000314712524
aa(lp293
F-204.3800048828125
aF105.47000122070312
aF-45.479999542236328
aF1.5670000314712524
aa(lp294
F-205.75999450683594
aF104.59999847412109
aF-45.479999542236328
aF1.5670000314712524
aa(lp295
F-208.75999450683594
aF104.47000122070312
aF-45.479999542236328
aF1.5670000314712524
aa(lp296
F-211.1300048828125
aF104.34999847412109
aF-46.619998931884766
aF1.5670000314712524
aa(lp297
F-213.50999450683594
aF104.84999847412109
aF-47.75
aF1.5670000314712524
aa(lp298
F-217.1300048828125
aF105.34999847412109
aF-47.75
aF1.5670000314712524
aa(lp299
F-218.25999450683594
aF105.59999847412109
aF-48.889999389648438
aF1.5670000314712524
aa(lp300
F-218.50999450683594
aF105.84999847412109
aF-48.889999389648438
aF1.5670000314712524
aasg10
S'dend[83]'
p301
sg12
S'dend[77]'
p302
sg14
(lp303
S'dend[89]'
p304
aS'dend[84]'
p305
assS'dend[2]'
p306
(dp307
g4
(lp308
(lp309
F-165.3800048828125
aF92.470001220703125
aF-35.25
aF1.9800000190734863
aa(lp310
F-165.1300048828125
aF94.470001220703125
aF-35.25
aF1.9800000190734863
aa(lp311
F-164.3800048828125
aF97.970001220703125
aF-35.25
aF1.9800000190734863
aa(lp312
F-164.3800048828125
aF100.22000122070312
aF-35.25
aF1.9800000190734863
aa(lp313
F-165.1300048828125
aF102.97000122070312
aF-35.25
aF1.9800000190734863
aasg10
S'dend[2]'
p314
sg12
S'dend[1]'
p315
sg14
(lp316
S'dend[28]'
p317
aS'dend[3]'
p318
assS'dend[38]'
p319
(dp320
g4
(lp321
(lp322
F-182.00999450683594
aF144.60000610351562
aF-43.209999084472656
aF1.6299999952316284
aa(lp323
F-183.25999450683594
aF146.72000122070312
aF-44.340000152587891
aF1.6299999952316284
aasg10
S'dend[38]'
p324
sg12
S'dend[37]'
p325
sg14
(lp326
S'dend[40]'
p327
aS'dend[39]'
p328
assS'dend[9]'
p329
(dp330
g4
(lp331
(lp332
F-167.8800048828125
aF123.22000122070312
aF-39.790000915527344
aF1.3799999952316284
aa(lp333
F-169.3800048828125
aF124.97000122070312
aF-39.790000915527344
aF1.3799999952316284
aa(lp334
F-171.1300048828125
aF127.22000122070312
aF-39.790000915527344
aF1.3799999952316284
aa(lp335
F-171.8800048828125
aF130.97000122070312
aF-39.790000915527344
aF1.3799999952316284
aa(lp336
F-171.8800048828125
aF134.72000122070312
aF-39.790000915527344
aF1.3799999952316284
aasg10
S'dend[9]'
p337
sg12
S'dend[5]'
p338
sg14
(lp339
ssS'dend[30]'
p340
(dp341
g4
(lp342
(lp343
F-173.1300048828125
aF113.84999847412109
aF-39.790000915527344
aF2.130000114440918
aa(lp344
F-173.3800048828125
aF115.84999847412109
aF-39.790000915527344
aF2.130000114440918
aa(lp345
F-174.25999450683594
aF118.47000122070312
aF-39.790000915527344
aF2.130000114440918
aa(lp346
F-175.25999450683594
aF120.72000122070312
aF-40.930000305175781
aF2.130000114440918
aasg10
S'dend[30]'
p347
sg12
S'dend[29]'
p348
sg14
(lp349
S'dend[49]'
p350
aS'dend[31]'
p351
assS'dend[65]'
p352
(dp353
g4
(lp354
(lp355
F-202.1300048828125
aF127.59999847412109
aF-42.069999694824219
aF1.1299999952316284
aa(lp356
F-203.1300048828125
aF129.10000610351562
aF-42.069999694824219
aF1.1299999952316284
aa(lp357
F-204.6300048828125
aF131.10000610351562
aF-42.069999694824219
aF1.1299999952316284
aa(lp358
F-205.50999450683594
aF132.35000610351562
aF-43.209999084472656
aF1.1299999952316284
aa(lp359
F-206.75999450683594
aF133.22000122070312
aF-43.209999084472656
aF1.1299999952316284
aa(lp360
F-209.75999450683594
aF134.97000122070312
aF-43.209999084472656
aF1.1299999952316284
aa(lp361
F-211.1300048828125
aF135.85000610351562
aF-45.479999542236328
aF1.1299999952316284
aasg10
S'dend[65]'
p362
sg12
S'dend[63]'
p363
sg14
(lp364
S'dend[67]'
p365
aS'dend[66]'
p366
assS'dend[89]'
p367
(dp368
g4
(lp369
(lp370
F-218.50999450683594
aF105.84999847412109
aF-48.889999389648438
aF1.3799999952316284
aa(lp371
F-220.00999450683594
aF105.22000122070312
aF-50.029998779296875
aF1.3799999952316284
aa(lp372
F-222.00999450683594
aF104.34999847412109
aF-50.029998779296875
aF1.3799999952316284
aa(lp373
F-224.50999450683594
aF103.84999847412109
aF-50.029998779296875
aF1.3799999952316284
aa(lp374
F-227.75999450683594
aF103.72000122070312
aF-52.299999237060547
aF1.3799999952316284
aasg10
S'dend[89]'
p375
sg12
S'dend[83]'
p376
sg14
(lp377
S'dend[95]'
p378
aS'dend[90]'
p379
assS'dend[41]'
p380
(dp381
g4
(lp382
(lp383
F-182.00999450683594
aF144.60000610351562
aF-43.209999084472656
aF1.25
aa(lp384
F-180.6300048828125
aF145.10000610351562
aF-42.069999694824219
aF1.25
aa(lp385
F-179.50999450683594
aF146.35000610351562
aF-42.069999694824219
aF1.25
aa(lp386
F-179.00999450683594
aF147.72000122070312
aF-42.069999694824219
aF1.25
aa(lp387
F-178.75999450683594
aF149.10000610351562
aF-42.069999694824219
aF1.25
aa(lp388
F-178.8800048828125
aF150.22000122070312
aF-43.209999084472656
aF1.25
aa(lp389
F-179.3800048828125
aF151.10000610351562
aF-43.209999084472656
aF1.25
aa(lp390
F-179.75999450683594
aF152.47000122070312
aF-43.209999084472656
aF1.25
aa(lp391
F-179.75999450683594
aF154.10000610351562
aF-43.209999084472656
aF1.25
aasg10
S'dend[41]'
p392
sg12
S'dend[37]'
p393
sg14
(lp394
ssS'dend[14]'
p395
(dp396
g4
(lp397
(lp398
F-157.8800048828125
aF121.47000122070312
aF-36.380001068115234
aF0.74000000953674316
aa(lp399
F-158.8800048828125
aF123.97000122070312
aF-36.380001068115234
aF0.74000000953674316
aa(lp400
F-159.1300048828125
aF126.72000122070312
aF-36.380001068115234
aF0.74000000953674316
aa(lp401
F-158.8800048828125
aF128.97000122070312
aF-36.380001068115234
aF0.74000000953674316
aa(lp402
F-157.6300048828125
aF132.97000122070312
aF-36.380001068115234
aF0.74000000953674316
aa(lp403
F-157.1300048828125
aF136.47000122070312
aF-36.380001068115234
aF0.74000000953674316
aasg10
S'dend[14]'
p404
sg12
S'dend[10]'
p405
sg14
(lp406
S'dend[16]'
p407
aS'dend[15]'
p408
assS'dend[37]'
p409
(dp410
g4
(lp411
(lp412
F-181.6300048828125
aF140.85000610351562
aF-42.069999694824219
aF1.6299999952316284
aa(lp413
F-182.1300048828125
aF143.60000610351562
aF-43.209999084472656
aF1.6299999952316284
aa(lp414
F-182.00999450683594
aF144.60000610351562
aF-43.209999084472656
aF1.6299999952316284
aasg10
S'dend[37]'
p415
sg12
S'dend[36]'
p416
sg14
(lp417
S'dend[41]'
p418
aS'dend[38]'
p419
assS'dend[27]'
p420
(dp421
g4
(lp422
(lp423
F-147.3800048828125
aF114.22000122070312
aF-28.420000076293945
aF0.87999999523162842
aa(lp424
F-146.00999450683594
aF112.84999847412109
aF-29.559999465942383
aF0.87999999523162842
aa(lp425
F-143.6300048828125
aF110.97000122070312
aF-29.559999465942383
aF0.87999999523162842
aa(lp426
F-141.50999450683594
aF109.34999847412109
aF-29.559999465942383
aF0.87999999523162842
aasg10
S'dend[27]'
p427
sg12
S'dend[25]'
p428
sg14
(lp429
ssS'dend[46]'
p430
(dp431
g4
(lp432
(lp433
F-200.75999450683594
aF147.47000122070312
aF-50.029998779296875
aF0.97000002861022949
aa(lp434
F-202.75999450683594
aF147.10000610351562
aF-50.029998779296875
aF0.97000002861022949
aa(lp435
F-204.50999450683594
aF146.72000122070312
aF-50.029998779296875
aF0.97000002861022949
aa(lp436
F-206.8800048828125
aF146.10000610351562
aF-50.029998779296875
aF0.97000002861022949
aa(lp437
F-209.1300048828125
aF146.85000610351562
aF-50.029998779296875
aF0.97000002861022949
aa(lp438
F-211.00999450683594
aF147.58000183105469
aF-54.580001831054688
aF0.97000002861022949
aa(lp439
F-212.75999450683594
aF148.19999694824219
aF-55.709999084472656
aF0.97000002861022949
aa(lp440
F-214.00999450683594
aF149.69999694824219
aF-55.709999084472656
aF0.97000002861022949
aasg10
S'dend[46]'
p441
sg12
S'dend[44]'
p442
sg14
(lp443
ssS'dend[94]'
p444
(dp445
g4
(lp446
(lp447
F-236.25999450683594
aF98.349998474121094
aF-55.709999084472656
aF1
aa(lp448
F-237.1300048828125
aF97.970001220703125
aF-55.709999084472656
aF1
aa(lp449
F-238.75999450683594
aF97.720001220703125
aF-57.990001678466797
aF1
aa(lp450
F-239.75999450683594
aF96.599998474121094
aF-57.990001678466797
aF1
aa(lp451
F-240.75999450683594
aF96.099998474121094
aF-57.990001678466797
aF1
aasg10
S'dend[94]'
p452
sg12
S'dend[92]'
p453
sg14
(lp454
ssS'dend[1]'
p455
(dp456
g4
(lp457
(lp458
F-161.6300048828125
aF85.849998474121094
aF-31.840000152587891
aF3.1940000057220459
aa(lp459
F-163.00999450683594
aF88.099998474121094
aF-35.25
aF3.1940000057220459
aa(lp460
F-164.8800048828125
aF90.970001220703125
aF-35.25
aF3.1940000057220459
aa(lp461
F-165.3800048828125
aF92.470001220703125
aF-35.25
aF3.1940000057220459
aasg10
S'dend[1]'
p462
sg12
S'dend[0]'
p463
sg14
(lp464
S'dend[55]'
p465
aS'dend[2]'
p466
assS'dend[86]'
p467
(dp468
g4
(lp469
(lp470
F-229.50999450683594
aF114.84999847412109
aF-55.709999084472656
aF1.3799999952316284
aa(lp471
F-229.8800048828125
aF116.22000122070312
aF-55.709999084472656
aF1.3799999952316284
aa(lp472
F-231.75999450683594
aF117.97000122070312
aF-55.709999084472656
aF1.3799999952316284
aa(lp473
F-233.75999450683594
aF118.47000122070312
aF-55.709999084472656
aF1.3799999952316284
aasg10
S'dend[86]'
p474
sg12
S'dend[85]'
p475
sg14
(lp476
ssS'dend[78]'
p477
(dp478
g4
(lp479
(lp480
F-201.25999450683594
aF107.22000122070312
aF-43.209999084472656
aF1.3799999952316284
aa(lp481
F-202.00999450683594
aF108.22000122070312
aF-43.209999084472656
aF1.3799999952316284
aa(lp482
F-202.8800048828125
aF108.84999847412109
aF-43.209999084472656
aF1.3799999952316284
aa(lp483
F-204.3800048828125
aF110.34999847412109
aF-43.209999084472656
aF1.3799999952316284
aa(lp484
F-206.00999450683594
aF110.84999847412109
aF-44.340000152587891
aF1.3799999952316284
aa(lp485
F-207.1300048828125
aF111.34999847412109
aF-44.340000152587891
aF1.3799999952316284
aa(lp486
F-209.00999450683594
aF112.47000122070312
aF-45.479999542236328
aF1.3799999952316284
aa(lp487
F-211.3800048828125
aF113.97000122070312
aF-45.479999542236328
aF1.3799999952316284
aasg10
S'dend[78]'
p488
sg12
S'dend[77]'
p489
sg14
(lp490
S'dend[80]'
p491
aS'dend[79]'
p492
assS'dend[8]'
p493
(dp494
g4
(lp495
(lp496
F-166.6300048828125
aF134.22000122070312
aF-39.790000915527344
aF1.3799999952316284
aa(lp497
F-164.6300048828125
aF134.97000122070312
aF-39.790000915527344
aF1.3799999952316284
aa(lp498
F-161.8800048828125
aF133.97000122070312
aF-39.790000915527344
aF1.3799999952316284
aa(lp499
F-157.3800048828125
aF131.22000122070312
aF-39.790000915527344
aF1.3799999952316284
aa(lp500
F-154.6300048828125
aF129.72000122070312
aF-39.790000915527344
aF1.3799999952316284
aasg10
S'dend[8]'
p501
sg12
S'dend[6]'
p502
sg14
(lp503
ssS'dend[39]'
p504
(dp505
g4
(lp506
(lp507
F-183.25999450683594
aF146.72000122070312
aF-44.340000152587891
aF1.6299999952316284
aa(lp508
F-183.75999450683594
aF148.10000610351562
aF-44.340000152587891
aF1.6299999952316284
aa(lp509
F-183.8800048828125
aF149.60000610351562
aF-44.340000152587891
aF1.6299999952316284
aa(lp510
F-184.3800048828125
aF150.97000122070312
aF-44.340000152587891
aF1.6299999952316284
aa(lp511
F-185.00999450683594
aF152.47000122070312
aF-44.340000152587891
aF1.6299999952316284
aa(lp512
F-185.75999450683594
aF152.97000122070312
aF-44.340000152587891
aF1.6299999952316284
aa(lp513
F-186.00999450683594
aF154.22000122070312
aF-44.340000152587891
aF1.6299999952316284
aasg10
S'dend[39]'
p514
sg12
S'dend[38]'
p515
sg14
(lp516
ssS'dend[64]'
p517
(dp518
g4
(lp519
(lp520
F-202.1300048828125
aF127.59999847412109
aF-42.069999694824219
aF1.1299999952316284
aa(lp521
F-201.25999450683594
aF128.85000610351562
aF-42.069999694824219
aF1.1299999952316284
aa(lp522
F-199.25999450683594
aF129.72000122070312
aF-42.069999694824219
aF1.1299999952316284
aa(lp523
F-198.1300048828125
aF130.35000610351562
aF-42.069999694824219
aF1.1299999952316284
aasg10
S'dend[64]'
p524
sg12
S'dend[63]'
p525
sg14
(lp526
ssS'dend[31]'
p527
(dp528
g4
(lp529
(lp530
F-175.25999450683594
aF120.72000122070312
aF-40.930000305175781
aF2.130000114440918
aa(lp531
F-176.8800048828125
aF121.72000122070312
aF-42.069999694824219
aF2.130000114440918
aasg10
S'dend[31]'
p532
sg12
S'dend[30]'
p533
sg14
(lp534
S'dend[35]'
p535
aS'dend[32]'
p536
assS'dend[15]'
p537
(dp538
g4
(lp539
(lp540
F-157.1300048828125
aF136.47000122070312
aF-36.380001068115234
aF0.80500000715255737
aa(lp541
F-156.6300048828125
aF138.72000122070312
aF-36.380001068115234
aF0.80500000715255737
aa(lp542
F-159.3800048828125
aF140.10000610351562
aF-36.380001068115234
aF0.80500000715255737
aa(lp543
F-161.3800048828125
aF140.72000122070312
aF-36.380001068115234
aF0.80500000715255737
aa(lp544
F-163.3800048828125
aF139.97000122070312
aF-36.380001068115234
aF0.80500000715255737
aa(lp545
F-165.1300048828125
aF138.85000610351562
aF-36.380001068115234
aF0.80500000715255737
aasg10
S'dend[15]'
p546
sg12
S'dend[14]'
p547
sg14
(lp548
ssS'dend[40]'
p549
(dp550
g4
(lp551
(lp552
F-183.25999450683594
aF146.72000122070312
aF-44.340000152587891
aF1.3799999952316284
aa(lp553
F-184.3800048828125
aF147.10000610351562
aF-44.340000152587891
aF1.3799999952316284
aa(lp554
F-185.3800048828125
aF147.22000122070312
aF-44.340000152587891
aF1.3799999952316284
aa(lp555
F-186.8800048828125
aF147.72000122070312
aF-45.479999542236328
aF1.3799999952316284
aa(lp556
F-188.50999450683594
aF148.85000610351562
aF-45.479999542236328
aF1.3799999952316284
aa(lp557
F-190.1300048828125
aF149.97000122070312
aF-46.619998931884766
aF1.3799999952316284
aa(lp558
F-191.00999450683594
aF151.47000122070312
aF-46.619998931884766
aF1.3799999952316284
aa(lp559
F-191.25999450683594
aF153.22000122070312
aF-46.619998931884766
aF1.3799999952316284
aa(lp560
F-193.1300048828125
aF154.22000122070312
aF-46.619998931884766
aF1.3799999952316284
aasg10
S'dend[40]'
p561
sg12
S'dend[38]'
p562
sg14
(lp563
ssS'dend[49]'
p564
(dp565
g4
(lp566
(lp567
F-175.25999450683594
aF120.72000122070312
aF-40.930000305175781
aF1.1660000085830688
aa(lp568
F-173.6300048828125
aF121.34999847412109
aF-40.930000305175781
aF1.1660000085830688
aa(lp569
F-172.8800048828125
aF122.59999847412109
aF-40.930000305175781
aF1.1660000085830688
aa(lp570
F-173.6300048828125
aF124.22000122070312
aF-42.069999694824219
aF1.1660000085830688
aa(lp571
F-175.00999450683594
aF126.22000122070312
aF-42.069999694824219
aF1.1660000085830688
aa(lp572
F-176.00999450683594
aF127.34999847412109
aF-42.069999694824219
aF1.1660000085830688
aa(lp573
F-176.3800048828125
aF128.85000610351562
aF-43.209999084472656
aF1.1660000085830688
aa(lp574
F-177.00999450683594
aF131.10000610351562
aF-43.209999084472656
aF1.1660000085830688
aa(lp575
F-177.1300048828125
aF132.85000610351562
aF-44.340000152587891
aF1.1660000085830688
aa(lp576
F-176.6300048828125
aF134.35000610351562
aF-44.340000152587891
aF1.1660000085830688
aa(lp577
F-175.1300048828125
aF135.35000610351562
aF-44.340000152587891
aF1.1660000085830688
aa(lp578
F-173.6300048828125
aF135.35000610351562
aF-44.340000152587891
aF1.1660000085830688
aa(lp579
F-171.00999450683594
aF134.60000610351562
aF-44.340000152587891
aF1.1660000085830688
aa(lp580
F-169.8800048828125
aF133.22000122070312
aF-44.340000152587891
aF1.1660000085830688
aasg10
S'dend[49]'
p581
sg12
S'dend[30]'
p582
sg14
(lp583
ssS'dend[26]'
p584
(dp585
g4
(lp586
(lp587
F-147.3800048828125
aF114.22000122070312
aF-28.420000076293945
aF1
aa(lp588
F-145.8800048828125
aF114.72000122070312
aF-27.290000915527344
aF1
aa(lp589
F-143.75999450683594
aF114.97000122070312
aF-27.290000915527344
aF1
aa(lp590
F-142.3800048828125
aF114.34999847412109
aF-25.010000228881836
aF1
aa(lp591
F-140.25999450683594
aF113.34999847412109
aF-25.010000228881836
aF1
aa(lp592
F-138.50999450683594
aF112.34999847412109
aF-25.010000228881836
aF1
aa(lp593
F-137.1300048828125
aF111.34999847412109
aF-25.010000228881836
aF1
aasg10
S'dend[26]'
p594
sg12
S'dend[25]'
p595
sg14
(lp596
ssS'dend[54]'
p597
(dp598
g4
(lp599
(lp600
F-189.1300048828125
aF114.72000122070312
aF-44.340000152587891
aF1.2680000066757202
aa(lp601
F-191.75999450683594
aF113.97000122070312
aF-45.479999542236328
aF1.2680000066757202
aa(lp602
F-194.75999450683594
aF113.72000122070312
aF-45.479999542236328
aF1.2680000066757202
aa(lp603
F-197.00999450683594
aF113.34999847412109
aF-45.479999542236328
aF1.2680000066757202
aa(lp604
F-198.75999450683594
aF112.84999847412109
aF-45.479999542236328
aF1.2680000066757202
aa(lp605
F-199.50999450683594
aF111.22000122070312
aF-45.479999542236328
aF1.2680000066757202
aa(lp606
F-199.75999450683594
aF109.47000122070312
aF-45.479999542236328
aF1.2680000066757202
aasg10
S'dend[54]'
p607
sg12
S'dend[52]'
p608
sg14
(lp609
ssS'dend[71]'
p610
(dp611
g4
(lp612
(lp613
F-191.3800048828125
aF124.47000122070312
aF-36.380001068115234
aF1.3799999952316284
aa(lp614
F-191.8800048828125
aF126.09999847412109
aF-38.659999847412109
aF1.3799999952316284
aa(lp615
F-192.3800048828125
aF128.35000610351562
aF-38.659999847412109
aF1.3799999952316284
aa(lp616
F-192.3800048828125
aF130.22000122070312
aF-38.659999847412109
aF1.3799999952316284
aasg10
S'dend[71]'
p617
sg12
S'dend[70]'
p618
sg14
(lp619
S'dend[73]'
p620
aS'dend[72]'
p621
assS'dend[0]'
p622
(dp623
g4
(lp624
(lp625
F-159.3800048828125
aF69.970001220703125
aF-31.840000152587891
aF3.7720000743865967
aa(lp626
F-160.1300048828125
aF73.470001220703125
aF-31.840000152587891
aF3.7720000743865967
aa(lp627
F-160.3800048828125
aF78.720001220703125
aF-31.840000152587891
aF3.7720000743865967
aa(lp628
F-160.6300048828125
aF82.220001220703125
aF-31.840000152587891
aF3.7720000743865967
aa(lp629
F-161.6300048828125
aF85.849998474121094
aF-31.840000152587891
aF3.7720000743865967
aasg10
S'dend[0]'
p630
sg12
Nsg14
(lp631
S'dend[1]'
p632
assS'dend[79]'
p633
(dp634
g4
(lp635
(lp636
F-211.3800048828125
aF113.97000122070312
aF-45.479999542236328
aF1.3799999952316284
aa(lp637
F-211.75999450683594
aF114.84999847412109
aF-46.619998931884766
aF1.3799999952316284
aa(lp638
F-212.3800048828125
aF116.47000122070312
aF-46.619998931884766
aF1.3799999952316284
aa(lp639
F-213.6300048828125
aF118.97000122070312
aF-46.619998931884766
aF1.3799999952316284
aa(lp640
F-214.75999450683594
aF120.34999847412109
aF-46.619998931884766
aF1.3799999952316284
aa(lp641
F-216.3800048828125
aF122.09999847412109
aF-46.619998931884766
aF1.3799999952316284
aa(lp642
F-218.25999450683594
aF122.59999847412109
aF-46.619998931884766
aF1.3799999952316284
aasg10
S'dend[79]'
p643
sg12
S'dend[78]'
p644
sg14
(lp645
ssS'dend[95]'
p646
(dp647
g4
(lp648
(lp649
F-227.75999450683594
aF103.72000122070312
aF-52.299999237060547
aF1
aa(lp650
F-229.1300048828125
aF100.22000122070312
aF-52.299999237060547
aF1
aa(lp651
F-229.75999450683594
aF98.599998474121094
aF-52.299999237060547
aF1
aa(lp652
F-230.8800048828125
aF96.099998474121094
aF-51.169998168945312
aF1
aa(lp653
F-231.1300048828125
aF95.099998474121094
aF-51.169998168945312
aF1
aasg10
S'dend[95]'
p654
sg12
S'dend[89]'
p655
sg14
(lp656
S'dend[97]'
p657
aS'dend[96]'
p658
assS'dend[81]'
p659
(dp660
g4
(lp661
(lp662
F-221.00999450683594
aF116.34999847412109
aF-50.029998779296875
aF1.3799999952316284
aa(lp663
F-221.00999450683594
aF118.22000122070312
aF-50.029998779296875
aF1.3799999952316284
aa(lp664
F-222.1300048828125
aF120.34999847412109
aF-50.029998779296875
aF1.3799999952316284
aa(lp665
F-223.25999450683594
aF121.59999847412109
aF-50.029998779296875
aF1.3799999952316284
aa(lp666
F-224.50999450683594
aF123.34999847412109
aF-52.299999237060547
aF1.3799999952316284
aa(lp667
F-225.6300048828125
aF125.72000122070312
aF-53.439998626708984
aF1.3799999952316284
aa(lp668
F-227.00999450683594
aF127.34999847412109
aF-53.439998626708984
aF1.3799999952316284
aa(lp669
F-229.00999450683594
aF129.10000610351562
aF-53.439998626708984
aF1.3799999952316284
aa(lp670
F-229.50999450683594
aF129.35000610351562
aF-53.439998626708984
aF1.3799999952316284
aasg10
S'dend[81]'
p671
sg12
S'dend[80]'
p672
sg14
(lp673
ssS'dend[7]'
p674
(dp675
g4
(lp676
(lp677
F-166.6300048828125
aF134.22000122070312
aF-39.790000915527344
aF1.3799999952316284
aa(lp678
F-168.3800048828125
aF134.72000122070312
aF-43.209999084472656
aF1.3799999952316284
aa(lp679
F-169.6300048828125
aF137.22000122070312
aF-43.209999084472656
aF1.3799999952316284
aa(lp680
F-170.3800048828125
aF141.72000122070312
aF-43.209999084472656
aF1.3799999952316284
aa(lp681
F-169.8800048828125
aF144.97000122070312
aF-43.209999084472656
aF1.3799999952316284
aasg10
S'dend[7]'
p682
sg12
S'dend[6]'
p683
sg14
(lp684
ssS'dend[16]'
p685
(dp686
g4
(lp687
(lp688
F-157.1300048828125
aF136.47000122070312
aF-36.380001068115234
aF0.7149999737739563
aa(lp689
F-153.8800048828125
aF137.22000122070312
aF-37.520000457763672
aF0.7149999737739563
aa(lp690
F-151.1300048828125
aF135.72000122070312
aF-37.520000457763672
aF0.7149999737739563
aa(lp691
F-149.25999450683594
aF136.72000122070312
aF-37.520000457763672
aF0.7149999737739563
aa(lp692
F-148.6300048828125
aF139.22000122070312
aF-37.520000457763672
aF0.7149999737739563
aa(lp693
F-148.8800048828125
aF140.22000122070312
aF-37.520000457763672
aF0.7149999737739563
aasg10
S'dend[16]'
p694
sg12
S'dend[14]'
p695
sg14
(lp696
ssS'dend[56]'
p697
(dp698
g4
(lp699
(lp700
F-178.8800048828125
aF96.599998474121094
aF-38.659999847412109
aF1.9110000133514404
aa(lp701
F-180.75999450683594
aF97.970001220703125
aF-39.790000915527344
aF1.9110000133514404
aa(lp702
F-183.00999450683594
aF99.470001220703125
aF-39.790000915527344
aF1.9110000133514404
aa(lp703
F-185.1300048828125
aF100.84999847412109
aF-39.790000915527344
aF1.9110000133514404
aa(lp704
F-187.75999450683594
aF102.72000122070312
aF-40.930000305175781
aF1.9110000133514404
aa(lp705
F-189.6300048828125
aF104.47000122070312
aF-40.930000305175781
aF1.9110000133514404
aa(lp706
F-190.25999450683594
aF104.22000122070312
aF-42.069999694824219
aF1.9110000133514404
aasg10
S'dend[56]'
p707
sg12
S'dend[55]'
p708
sg14
(lp709
S'dend[98]'
p710
aS'dend[57]'
p711
assS'dend[77]'
p712
(dp713
g4
(lp714
(lp715
F-194.1300048828125
aF107.72000122070312
aF-42.069999694824219
aF1.7769999504089355
aa(lp716
F-195.8800048828125
aF107.22000122070312
aF-43.209999084472656
aF1.7769999504089355
aa(lp717
F-198.75999450683594
aF107.34999847412109
aF-43.209999084472656
aF1.7769999504089355
aa(lp718
F-200.6300048828125
aF107.22000122070312
aF-43.209999084472656
aF1.7769999504089355
aa(lp719
F-201.25999450683594
aF107.22000122070312
aF-43.209999084472656
aF1.7769999504089355
aasg10
S'dend[77]'
p720
sg12
S'dend[57]'
p721
sg14
(lp722
S'dend[83]'
p723
aS'dend[78]'
p724
assS'dend[67]'
p725
(dp726
g4
(lp727
(lp728
F-211.1300048828125
aF135.85000610351562
aF-45.479999542236328
aF0.87999999523162842
aa(lp729
F-211.3800048828125
aF136.85000610351562
aF-46.619998931884766
aF0.87999999523162842
aa(lp730
F-212.50999450683594
aF138.22000122070312
aF-46.619998931884766
aF0.87999999523162842
aa(lp731
F-214.50999450683594
aF139.47000122070312
aF-46.619998931884766
aF0.87999999523162842
aa(lp732
F-215.3800048828125
aF140.97000122070312
aF-48.889999389648438
aF0.87999999523162842
aa(lp733
F-216.50999450683594
aF142.72000122070312
aF-48.889999389648438
aF0.87999999523162842
aa(lp734
F-217.00999450683594
aF143.85000610351562
aF-48.889999389648438
aF0.87999999523162842
aasg10
S'dend[67]'
p735
sg12
S'dend[65]'
p736
sg14
(lp737
S'dend[69]'
p738
aS'dend[68]'
p739
assS'dend[100]'
p740
(dp741
g4
(lp742
(lp743
F-209.75999450683594
aF115.84999847412109
aF-42.069999694824219
aF1.25
aa(lp744
F-210.75999450683594
aF116.97000122070312
aF-42.069999694824219
aF1.25
aa(lp745
F-211.3800048828125
aF117.97000122070312
aF-42.069999694824219
aF1.25
aa(lp746
F-212.00999450683594
aF118.97000122070312
aF-42.069999694824219
aF1.25
aasg10
S'dend[100]'
p747
sg12
S'dend[98]'
p748
sg14
(lp749
ssS'dend[35]'
p750
(dp751
g4
(lp752
(lp753
F-176.8800048828125
aF121.72000122070312
aF-42.069999694824219
aF1.6419999599456787
aa(lp754
F-177.6300048828125
aF123.47000122070312
aF-42.069999694824219
aF1.6419999599456787
aa(lp755
F-178.50999450683594
aF124.59999847412109
aF-40.930000305175781
aF1.6419999599456787
aa(lp756
F-179.3800048828125
aF125.59999847412109
aF-40.930000305175781
aF1.6419999599456787
aa(lp757
F-180.1300048828125
aF126.47000122070312
aF-40.930000305175781
aF1.6419999599456787
aa(lp758
F-180.75999450683594
aF127.47000122070312
aF-40.930000305175781
aF1.6419999599456787
aa(lp759
F-181.6300048828125
aF128.85000610351562
aF-40.930000305175781
aF1.6419999599456787
aa(lp760
F-182.00999450683594
aF130.35000610351562
aF-40.930000305175781
aF1.6419999599456787
aa(lp761
F-182.75999450683594
aF131.85000610351562
aF-40.930000305175781
aF1.6419999599456787
aa(lp762
F-183.00999450683594
aF132.47000122070312
aF-40.930000305175781
aF1.6419999599456787
aasg10
S'dend[35]'
p763
sg12
S'dend[31]'
p764
sg14
(lp765
S'dend[43]'
p766
aS'dend[36]'
p767
assS'dend[51]'
p768
(dp769
g4
(lp770
(lp771
F-184.00999450683594
aF114.22000122070312
aF-40.930000305175781
aF1.25
aa(lp772
F-184.25999450683594
aF116.22000122070312
aF-43.209999084472656
aF1.25
aa(lp773
F-185.3800048828125
aF117.59999847412109
aF-43.209999084472656
aF1.25
aa(lp774
F-187.00999450683594
aF118.72000122070312
aF-43.209999084472656
aF1.25
aa(lp775
F-188.25999450683594
aF119.97000122070312
aF-44.340000152587891
aF1.25
aa(lp776
F-189.8800048828125
aF120.84999847412109
aF-44.340000152587891
aF1.25
aa(lp777
F-191.00999450683594
aF121.34999847412109
aF-44.340000152587891
aF1.25
aa(lp778
F-192.3800048828125
aF122.34999847412109
aF-44.340000152587891
aF1.25
aa(lp779
F-193.75999450683594
aF123.22000122070312
aF-44.340000152587891
aF1.25
aa(lp780
F-195.00999450683594
aF124.59999847412109
aF-44.340000152587891
aF1.25
aasg10
S'dend[51]'
p781
sg12
S'dend[50]'
p782
sg14
(lp783
ssS'dend[84]'
p784
(dp785
g4
(lp786
(lp787
F-218.50999450683594
aF105.84999847412109
aF-48.889999389648438
aF1.5
aa(lp788
F-219.00999450683594
aF106.97000122070312
aF-50.029998779296875
aF1.5
aa(lp789
F-220.00999450683594
aF108.22000122070312
aF-50.029998779296875
aF1.5
aa(lp790
F-221.25999450683594
aF109.22000122070312
aF-50.029998779296875
aF1.5
aa(lp791
F-222.75999450683594
aF110.47000122070312
aF-51.169998168945312
aF1.5
aa(lp792
F-224.3800048828125
aF111.34999847412109
aF-53.439998626708984
aF1.5
aa(lp793
F-226.00999450683594
aF111.84999847412109
aF-53.439998626708984
aF1.5
aasg10
S'dend[84]'
p794
sg12
S'dend[83]'
p795
sg14
(lp796
S'dend[88]'
p797
aS'dend[85]'
p798
assS'dend[19]'
p799
(dp800
g4
(lp801
(lp802
F-148.6300048828125
aF122.09999847412109
aF-29.559999465942383
aF0.5
aa(lp803
F-146.75999450683594
aF121.47000122070312
aF-29.559999465942383
aF0.5
aa(lp804
F-144.50999450683594
aF120.72000122070312
aF-28.420000076293945
aF0.5
aa(lp805
F-143.1300048828125
aF119.22000122070312
aF-28.420000076293945
aF0.5
aa(lp806
F-142.1300048828125
aF118.22000122070312
aF-28.420000076293945
aF0.5
aasg10
S'dend[19]'
p807
sg12
S'dend[18]'
p808
sg14
(lp809
ssS'dend[21]'
p810
(dp811
g4
(lp812
(lp813
F-147.50999450683594
aF123.97000122070312
aF-29.559999465942383
aF0.5
aa(lp814
F-145.25999450683594
aF125.84999847412109
aF-28.420000076293945
aF0.5
aa(lp815
F-143.00999450683594
aF127.34999847412109
aF-28.420000076293945
aF0.5
aa(lp816
F-140.75999450683594
aF129.10000610351562
aF-28.420000076293945
aF0.5
aasg10
S'dend[21]'
p817
sg12
S'dend[20]'
p818
sg14
(lp819
S'dend[23]'
p820
aS'dend[22]'
p821
assS'dend[44]'
p822
(dp823
g4
(lp824
(lp825
F-187.8800048828125
aF135.35000610351562
aF-42.069999694824219
aF1.25
aa(lp826
F-188.00999450683594
aF136.10000610351562
aF-43.209999084472656
aF1.25
aa(lp827
F-189.25999450683594
aF137.22000122070312
aF-43.209999084472656
aF1.25
aa(lp828
F-191.50999450683594
aF138.47000122070312
aF-43.209999084472656
aF1.25
aa(lp829
F-192.6300048828125
aF139.72000122070312
aF-43.209999084472656
aF1.25
aa(lp830
F-193.50999450683594
aF141.10000610351562
aF-46.619998931884766
aF1.25
aa(lp831
F-195.00999450683594
aF142.22000122070312
aF-46.619998931884766
aF1.25
aa(lp832
F-196.75999450683594
aF143.47000122070312
aF-46.619998931884766
aF1.25
aa(lp833
F-198.75999450683594
aF145.22000122070312
aF-47.75
aF1.25
aa(lp834
F-200.00999450683594
aF146.85000610351562
aF-47.75
aF1.25
aa(lp835
F-200.75999450683594
aF147.47000122070312
aF-50.029998779296875
aF1.25
aasg10
S'dend[44]'
p836
sg12
S'dend[43]'
p837
sg14
(lp838
S'dend[46]'
p839
aS'dend[45]'
p840
assS'dend[60]'
p841
(dp842
g4
(lp843
(lp844
F-201.75999450683594
aF122.34999847412109
aF-42.069999694824219
aF1.5449999570846558
aa(lp845
F-203.75999450683594
aF122.97000122070312
aF-44.340000152587891
aF1.5449999570846558
aa(lp846
F-207.1300048828125
aF123.84999847412109
aF-44.340000152587891
aF1.5449999570846558
aa(lp847
F-208.3800048828125
aF123.72000122070312
aF-45.479999542236328
aF1.5449999570846558
aa(lp848
F-210.50999450683594
aF124.09999847412109
aF-45.479999542236328
aF1.5449999570846558
aa(lp849
F-212.00999450683594
aF124.72000122070312
aF-46.619998931884766
aF1.5449999570846558
aa(lp850
F-213.8800048828125
aF125.59999847412109
aF-46.619998931884766
aF1.5449999570846558
aa(lp851
F-215.50999450683594
aF126.22000122070312
aF-46.619998931884766
aF1.5449999570846558
aa(lp852
F-216.1300048828125
aF126.72000122070312
aF-48.889999389648438
aF1.5449999570846558
aa(lp853
F-216.50999450683594
aF126.84999847412109
aF-48.889999389648438
aF1.5449999570846558
aasg10
S'dend[60]'
p854
sg12
S'dend[59]'
p855
sg14
(lp856
S'dend[62]'
p857
aS'dend[61]'
p858
assS'dend[68]'
p859
(dp860
g4
(lp861
(lp862
F-217.00999450683594
aF143.85000610351562
aF-48.889999389648438
aF0.87999999523162842
aa(lp863
F-218.00999450683594
aF144.22000122070312
aF-48.889999389648438
aF0.87999999523162842
aa(lp864
F-220.6300048828125
aF144.22000122070312
aF-48.889999389648438
aF0.87999999523162842
aasg10
S'dend[68]'
p865
sg12
S'dend[67]'
p866
sg14
(lp867
ssS'dend[96]'
p868
(dp869
g4
(lp870
(lp871
F-231.1300048828125
aF95.099998474121094
aF-51.169998168945312
aF0.75
aa(lp872
F-230.00999450683594
aF93.349998474121094
aF-51.169998168945312
aF0.75
aa(lp873
F-229.1300048828125
aF91.970001220703125
aF-51.169998168945312
aF0.75
aa(lp874
F-228.8800048828125
aF91.970001220703125
aF-51.169998168945312
aF0.75
aasg10
S'dend[96]'
p875
sg12
S'dend[95]'
p876
sg14
(lp877
ssS'dend[6]'
p878
(dp879
g4
(lp880
(lp881
F-167.8800048828125
aF123.22000122070312
aF-39.790000915527344
aF1.3799999952316284
aa(lp882
F-167.8800048828125
aF124.72000122070312
aF-39.790000915527344
aF1.3799999952316284
aa(lp883
F-166.8800048828125
aF126.47000122070312
aF-39.790000915527344
aF1.3799999952316284
aa(lp884
F-166.6300048828125
aF128.97000122070312
aF-39.790000915527344
aF1.3799999952316284
aa(lp885
F-166.1300048828125
aF132.72000122070312
aF-39.790000915527344
aF1.3799999952316284
aa(lp886
F-166.6300048828125
aF134.22000122070312
aF-39.790000915527344
aF1.3799999952316284
aasg10
S'dend[6]'
p887
sg12
S'dend[5]'
p888
sg14
(lp889
S'dend[8]'
p890
aS'dend[7]'
p891
assS'dend[70]'
p892
(dp893
g4
(lp894
(lp895
F-198.3800048828125
aF118.22000122070312
aF-40.930000305175781
aF1.3799999952316284
aa(lp896
F-196.3800048828125
aF120.09999847412109
aF-38.659999847412109
aF1.3799999952316284
aa(lp897
F-194.8800048828125
aF121.09999847412109
aF-38.659999847412109
aF1.3799999952316284
aa(lp898
F-193.3800048828125
aF122.72000122070312
aF-38.659999847412109
aF1.3799999952316284
aa(lp899
F-192.3800048828125
aF123.97000122070312
aF-38.659999847412109
aF1.3799999952316284
aa(lp900
F-191.3800048828125
aF124.47000122070312
aF-36.380001068115234
aF1.3799999952316284
aasg10
S'dend[70]'
p901
sg12
S'dend[58]'
p902
sg14
(lp903
S'dend[74]'
p904
aS'dend[71]'
p905
assS'dend[57]'
p906
(dp907
g4
(lp908
(lp909
F-190.25999450683594
aF104.22000122070312
aF-42.069999694824219
aF2.0099999904632568
aa(lp910
F-191.00999450683594
aF105.59999847412109
aF-42.069999694824219
aF2.0099999904632568
aa(lp911
F-193.25999450683594
aF107.47000122070312
aF-42.069999694824219
aF2.0099999904632568
aa(lp912
F-194.1300048828125
aF107.72000122070312
aF-42.069999694824219
aF2.0099999904632568
aasg10
S'dend[57]'
p913
sg12
S'dend[56]'
p914
sg14
(lp915
S'dend[77]'
p916
aS'dend[58]'
p917
assS'dend[17]'
p918
(dp919
g4
(lp920
(lp921
F-161.3800048828125
aF109.84999847412109
aF-35.25
aF0.75
aa(lp922
F-156.3800048828125
aF111.72000122070312
aF-32.970001220703125
aF0.75
aa(lp923
F-154.1300048828125
aF113.22000122070312
aF-32.970001220703125
aF0.75
aa(lp924
F-152.6300048828125
aF115.97000122070312
aF-29.559999465942383
aF0.75
aasg10
S'dend[17]'
p925
sg12
S'dend[3]'
p926
sg14
(lp927
S'dend[25]'
p928
aS'dend[18]'
p929
assS'dend[66]'
p930
(dp931
g4
(lp932
(lp933
F-211.1300048828125
aF135.85000610351562
aF-45.479999542236328
aF0.87999999523162842
aa(lp934
F-212.00999450683594
aF135.22000122070312
aF-45.479999542236328
aF0.87999999523162842
aa(lp935
F-212.25999450683594
aF134.72000122070312
aF-45.479999542236328
aF0.87999999523162842
aasg10
S'dend[66]'
p936
sg12
S'dend[65]'
p937
sg14
(lp938
ssS'dend[36]'
p939
(dp940
g4
(lp941
(lp942
F-183.00999450683594
aF132.47000122070312
aF-40.930000305175781
aF1.6649999618530273
aa(lp943
F-183.00999450683594
aF135.35000610351562
aF-42.069999694824219
aF1.6649999618530273
aa(lp944
F-182.6300048828125
aF137.60000610351562
aF-42.069999694824219
aF1.6649999618530273
aa(lp945
F-182.3800048828125
aF139.35000610351562
aF-42.069999694824219
aF1.6649999618530273
aa(lp946
F-181.6300048828125
aF140.85000610351562
aF-42.069999694824219
aF1.6649999618530273
aasg10
S'dend[36]'
p947
sg12
S'dend[35]'
p948
sg14
(lp949
S'dend[42]'
p950
aS'dend[37]'
p951
assS'dend[20]'
p952
(dp953
g4
(lp954
(lp955
F-148.6300048828125
aF122.09999847412109
aF-29.559999465942383
aF0.5
aa(lp956
F-147.50999450683594
aF123.97000122070312
aF-29.559999465942383
aF0.5
aasg10
S'dend[20]'
p957
sg12
S'dend[18]'
p958
sg14
(lp959
S'dend[24]'
p960
aS'dend[21]'
p961
assS'dend[47]'
p962
(dp963
g4
(lp964
(lp965
F-187.8800048828125
aF135.35000610351562
aF-42.069999694824219
aF1.25
aa(lp966
F-191.25999450683594
aF134.97000122070312
aF-43.209999084472656
aF1.25
aa(lp967
F-193.75999450683594
aF135.72000122070312
aF-43.209999084472656
aF1.25
aa(lp968
F-196.25999450683594
aF135.97000122070312
aF-43.209999084472656
aF1.25
aa(lp969
F-198.8800048828125
aF136.85000610351562
aF-43.209999084472656
aF1.25
aasg10
S'dend[47]'
p970
sg12
S'dend[43]'
p971
sg14
(lp972
S'dend[48]'
p973
assS'dend[97]'
p974
(dp975
g4
(lp976
(lp977
F-231.1300048828125
aF95.099998474121094
aF-51.169998168945312
aF0.75
aa(lp978
F-232.00999450683594
aF94.599998474121094
aF-51.169998168945312
aF0.75
aa(lp979
F-234.6300048828125
aF93.720001220703125
aF-51.169998168945312
aF0.75
aa(lp980
F-235.50999450683594
aF93.720001220703125
aF-51.169998168945312
aF0.75
aasg10
S'dend[97]'
p981
sg12
S'dend[95]'
p982
sg14
(lp983
ssS'dend[87]'
p984
(dp985
g4
(lp986
(lp987
F-229.50999450683594
aF114.84999847412109
aF-55.709999084472656
aF1.3799999952316284
aa(lp988
F-230.75999450683594
aF114.34999847412109
aF-55.709999084472656
aF1.3799999952316284
aa(lp989
F-233.00999450683594
aF113.84999847412109
aF-55.709999084472656
aF1.3799999952316284
aa(lp990
F-236.6300048828125
aF113.84999847412109
aF-55.709999084472656
aF1.3799999952316284
aasg10
S'dend[87]'
p991
sg12
S'dend[85]'
p992
sg14
(lp993
ssS'dend[10]'
p994
(dp995
g4
(lp996
(lp997
F-162.00999450683594
aF111.59999847412109
aF-36.380001068115234
aF0.76200002431869507
aa(lp998
F-161.1300048828125
aF113.97000122070312
aF-36.380001068115234
aF0.76200002431869507
aa(lp999
F-159.8800048828125
aF116.47000122070312
aF-36.380001068115234
aF0.76200002431869507
aa(lp1000
F-158.3800048828125
aF119.47000122070312
aF-36.380001068115234
aF0.76200002431869507
aa(lp1001
F-157.8800048828125
aF121.47000122070312
aF-36.380001068115234
aF0.76200002431869507
aasg10
S'dend[10]'
p1002
sg12
S'dend[4]'
p1003
sg14
(lp1004
S'dend[14]'
p1005
aS'dend[11]'
p1006
assS'dend[99]'
p1007
(dp1008
g4
(lp1009
(lp1010
F-209.75999450683594
aF115.84999847412109
aF-42.069999694824219
aF1.25
aa(lp1011
F-208.3800048828125
aF116.47000122070312
aF-42.069999694824219
aF1.25
aa(lp1012
F-208.00999450683594
aF116.59999847412109
aF-42.069999694824219
aF1.25
aasg10
S'dend[99]'
p1013
sg12
S'dend[98]'
p1014
sg14
(lp1015
ssS'dend[45]'
p1016
(dp1017
g4
(lp1018
(lp1019
F-200.75999450683594
aF147.47000122070312
aF-50.029998779296875
aF1.25
aa(lp1020
F-200.25999450683594
aF149.10000610351562
aF-50.029998779296875
aF1.25
aa(lp1021
F-200.6300048828125
aF150.35000610351562
aF-50.029998779296875
aF1.25
aa(lp1022
F-201.00999450683594
aF151.60000610351562
aF-50.029998779296875
aF1.25
aa(lp1023
F-201.3800048828125
aF153.22000122070312
aF-50.029998779296875
aF1.25
aa(lp1024
F-200.50999450683594
aF154.47000122070312
aF-50.029998779296875
aF1.25
aa(lp1025
F-200.00999450683594
aF154.72000122070312
aF-50.029998779296875
aF1.25
aasg10
S'dend[45]'
p1026
sg12
S'dend[44]'
p1027
sg14
(lp1028
ssS'dend[22]'
p1029
(dp1030
g4
(lp1031
(lp1032
F-140.75999450683594
aF129.10000610351562
aF-28.420000076293945
aF0.5
aa(lp1033
F-141.50999450683594
aF130.10000610351562
aF-27.290000915527344
aF0.5
aa(lp1034
F-140.50999450683594
aF131.35000610351562
aF-27.290000915527344
aF0.5
aa(lp1035
F-138.75999450683594
aF131.47000122070312
aF-27.290000915527344
aF0.5
aa(lp1036
F-137.1300048828125
aF130.97000122070312
aF-27.290000915527344
aF0.5
aasg10
S'dend[22]'
p1037
sg12
S'dend[21]'
p1038
sg14
(lp1039
ssS'dend[58]'
p1040
(dp1041
g4
(lp1042
(lp1043
F-194.1300048828125
aF107.72000122070312
aF-42.069999694824219
aF2.25
aa(lp1044
F-194.6300048828125
aF109.22000122070312
aF-42.069999694824219
aF2.25
aa(lp1045
F-195.75999450683594
aF111.34999847412109
aF-42.069999694824219
aF2.25
aa(lp1046
F-196.50999450683594
aF112.84999847412109
aF-42.069999694824219
aF2.25
aa(lp1047
F-197.50999450683594
aF114.84999847412109
aF-42.069999694824219
aF2.25
aa(lp1048
F-197.8800048828125
aF116.34999847412109
aF-42.069999694824219
aF2.25
aa(lp1049
F-198.3800048828125
aF118.22000122070312
aF-40.930000305175781
aF2.25
aasg10
S'dend[58]'
p1050
sg12
S'dend[57]'
p1051
sg14
(lp1052
S'dend[70]'
p1053
aS'dend[59]'
p1054
assS'dend[75]'
p1055
(dp1056
g4
(lp1057
(lp1058
F-188.3800048828125
aF124.59999847412109
aF-36.380001068115234
aF1.25
aa(lp1059
F-183.1300048828125
aF126.47000122070312
aF-32.970001220703125
aF1.25
aa(lp1060
F-181.3800048828125
aF127.72000122070312
aF-32.970001220703125
aF1.25
aa(lp1061
F-180.25999450683594
aF129.72000122070312
aF-32.970001220703125
aF1.25
aa(lp1062
F-179.75999450683594
aF131.85000610351562
aF-32.970001220703125
aF1.25
aa(lp1063
F-179.50999450683594
aF134.85000610351562
aF-32.970001220703125
aF1.25
aa(lp1064
F-180.25999450683594
aF135.97000122070312
aF-32.970001220703125
aF1.25
aasg10
S'dend[75]'
p1065
sg12
S'dend[74]'
p1066
sg14
(lp1067
ssS'dend[53]'
p1068
(dp1069
g4
(lp1070
(lp1071
F-189.1300048828125
aF114.72000122070312
aF-44.340000152587891
aF1.2669999599456787
aa(lp1072
F-190.1300048828125
aF115.84999847412109
aF-45.479999542236328
aF1.2669999599456787
aa(lp1073
F-191.3800048828125
aF116.97000122070312
aF-45.479999542236328
aF1.2669999599456787
aa(lp1074
F-193.1300048828125
aF118.09999847412109
aF-45.479999542236328
aF1.2669999599456787
aa(lp1075
F-194.8800048828125
aF118.72000122070312
aF-46.619998931884766
aF1.2669999599456787
aa(lp1076
F-196.3800048828125
aF119.84999847412109
aF-46.619998931884766
aF1.2669999599456787
aa(lp1077
F-197.3800048828125
aF120.09999847412109
aF-46.619998931884766
aF1.2669999599456787
aa(lp1078
F-199.8800048828125
aF120.84999847412109
aF-46.619998931884766
aF1.2669999599456787
aa(lp1079
F-200.8800048828125
aF121.09999847412109
aF-48.889999389648438
aF1.2669999599456787
aa(lp1080
F-202.8800048828125
aF121.34999847412109
aF-48.889999389648438
aF1.2669999599456787
aa(lp1081
F-205.00999450683594
aF120.97000122070312
aF-48.889999389648438
aF1.2669999599456787
aa(lp1082
F-205.8800048828125
aF120.97000122070312
aF-48.889999389648438
aF1.2669999599456787
aa(lp1083
F-206.50999450683594
aF120.97000122070312
aF-48.889999389648438
aF1.2669999599456787
aasg10
S'dend[53]'
p1084
sg12
S'dend[52]'
p1085
sg14
(lp1086
ssS'dend[33]'
p1087
(dp1088
g4
(lp1089
(lp1090
F-189.00999450683594
aF125.58000183105469
aF-48.889999389648438
aF0.5
aa(lp1091
F-190.6300048828125
aF125.58000183105469
aF-50.029998779296875
aF0.5
aa(lp1092
F-192.6300048828125
aF126.33000183105469
aF-50.029998779296875
aF0.5
aa(lp1093
F-194.25999450683594
aF128.08000183105469
aF-50.029998779296875
aF0.5
aa(lp1094
F-196.00999450683594
aF128.33000183105469
aF-52.299999237060547
aF0.5
aa(lp1095
F-197.8800048828125
aF129.44999694824219
aF-52.299999237060547
aF0.5
aa(lp1096
F-198.75999450683594
aF130.94999694824219
aF-52.299999237060547
aF0.5
aa(lp1097
F-198.3800048828125
aF132.58000183105469
aF-52.299999237060547
aF0.5
aasg10
S'dend[33]'
p1098
sg12
S'dend[32]'
p1099
sg14
(lp1100
ssS'dend[62]'
p1101
(dp1102
g4
(lp1103
(lp1104
F-216.50999450683594
aF126.84999847412109
aF-48.889999389648438
aF1.25
aa(lp1105
F-216.50999450683594
aF128.35000610351562
aF-48.889999389648438
aF1.25
aa(lp1106
F-217.50999450683594
aF129.72000122070312
aF-48.889999389648438
aF1.25
aa(lp1107
F-218.50999450683594
aF130.85000610351562
aF-48.889999389648438
aF1.25
aa(lp1108
F-219.3800048828125
aF132.47000122070312
aF-48.889999389648438
aF1.25
aa(lp1109
F-219.50999450683594
aF133.47000122070312
aF-50.029998779296875
aF1.25
aa(lp1110
F-219.75999450683594
aF135.10000610351562
aF-50.029998779296875
aF1.25
aa(lp1111
F-220.00999450683594
aF136.60000610351562
aF-51.169998168945312
aF1.25
aa(lp1112
F-220.3800048828125
aF138.10000610351562
aF-51.169998168945312
aF1.25
aa(lp1113
F-221.1300048828125
aF140.47000122070312
aF-51.169998168945312
aF1.25
aasg10
S'dend[62]'
p1114
sg12
S'dend[60]'
p1115
sg14
(lp1116
ssS'dend[82]'
p1117
(dp1118
g4
(lp1119
(lp1120
F-221.00999450683594
aF116.34999847412109
aF-50.029998779296875
aF1.281000018119812
aa(lp1121
F-223.1300048828125
aF115.84999847412109
aF-52.299999237060547
aF1.281000018119812
aa(lp1122
F-224.6300048828125
aF116.34999847412109
aF-52.299999237060547
aF1.281000018119812
aa(lp1123
F-226.1300048828125
aF117.59999847412109
aF-52.299999237060547
aF1.281000018119812
aa(lp1124
F-227.50999450683594
aF118.97000122070312
aF-52.299999237060547
aF1.281000018119812
aa(lp1125
F-228.75999450683594
aF120.09999847412109
aF-52.299999237060547
aF1.281000018119812
aa(lp1126
F-233.75999450683594
aF123.47000122070312
aF-52.299999237060547
aF1.281000018119812
aasg10
S'dend[82]'
p1127
sg12
S'dend[80]'
p1128
sg14
(lp1129
ssS'dend[90]'
p1130
(dp1131
g4
(lp1132
(lp1133
F-227.75999450683594
aF103.72000122070312
aF-52.299999237060547
aF1.3799999952316284
aa(lp1134
F-231.00999450683594
aF103.59999847412109
aF-52.299999237060547
aF1.3799999952316284
aa(lp1135
F-234.75999450683594
aF102.97000122070312
aF-54.580001831054688
aF1.3799999952316284
aasg10
S'dend[90]'
p1136
sg12
S'dend[89]'
p1137
sg14
(lp1138
S'dend[92]'
p1139
aS'dend[91]'
p1140
assS'dend[5]'
p1141
(dp1142
g4
(lp1143
(lp1144
F-162.00999450683594
aF111.59999847412109
aF-36.380001068115234
aF1.3400000333786011
aa(lp1145
F-163.8800048828125
aF112.72000122070312
aF-36.380001068115234
aF1.3400000333786011
aa(lp1146
F-164.6300048828125
aF113.72000122070312
aF-36.380001068115234
aF1.3400000333786011
aa(lp1147
F-164.8800048828125
aF115.47000122070312
aF-39.790000915527344
aF1.3400000333786011
aa(lp1148
F-164.3800048828125
aF117.47000122070312
aF-39.790000915527344
aF1.3400000333786011
aa(lp1149
F-163.6300048828125
aF120.22000122070312
aF-39.790000915527344
aF1.3400000333786011
aa(lp1150
F-165.6300048828125
aF121.47000122070312
aF-39.790000915527344
aF1.3400000333786011
aa(lp1151
F-167.8800048828125
aF123.22000122070312
aF-39.790000915527344
aF1.3400000333786011
aasg10
S'dend[5]'
p1152
sg12
S'dend[4]'
p1153
sg14
(lp1154
S'dend[9]'
p1155
aS'dend[6]'
p1156
assS'dend[11]'
p1157
(dp1158
g4
(lp1159
(lp1160
F-157.8800048828125
aF121.47000122070312
aF-36.380001068115234
aF0.87999999523162842
aa(lp1161
F-156.3800048828125
aF122.97000122070312
aF-35.25
aF0.87999999523162842
aa(lp1162
F-155.1300048828125
aF124.97000122070312
aF-35.25
aF0.87999999523162842
aa(lp1163
F-154.8800048828125
aF126.72000122070312
aF-35.25
aF0.87999999523162842
aa(lp1164
F-152.8800048828125
aF129.97000122070312
aF-35.25
aF0.87999999523162842
aa(lp1165
F-150.3800048828125
aF131.47000122070312
aF-36.380001068115234
aF0.87999999523162842
aasg10
S'dend[11]'
p1166
sg12
S'dend[10]'
p1167
sg14
(lp1168
S'dend[13]'
p1169
aS'dend[12]'
p1170
assS'dend[29]'
p1171
(dp1172
g4
(lp1173
(lp1174
F-169.3800048828125
aF109.34999847412109
aF-37.520000457763672
aF1.9129999876022339
aa(lp1175
F-171.1300048828125
aF110.72000122070312
aF-38.659999847412109
aF1.9129999876022339
aa(lp1176
F-172.3800048828125
aF112.72000122070312
aF-38.659999847412109
aF1.9129999876022339
aa(lp1177
F-173.1300048828125
aF113.84999847412109
aF-39.790000915527344
aF1.9129999876022339
aasg10
S'dend[29]'
p1178
sg12
S'dend[28]'
p1179
sg14
(lp1180
S'dend[50]'
p1181
aS'dend[30]'
p1182
assS'dend[4]'
p1183
(dp1184
g4
(lp1185
(lp1186
F-161.3800048828125
aF109.84999847412109
aF-35.25
aF1
aa(lp1187
F-162.00999450683594
aF111.59999847412109
aF-36.380001068115234
aF1
aasg10
S'dend[4]'
p1188
sg12
S'dend[3]'
p1189
sg14
(lp1190
S'dend[10]'
p1191
aS'dend[5]'
p1192
assS'dend[76]'
p1193
(dp1194
g4
(lp1195
(lp1196
F-188.3800048828125
aF124.59999847412109
aF-36.380001068115234
aF1.25
aa(lp1197
F-186.6300048828125
aF123.59999847412109
aF-32.970001220703125
aF1.25
aa(lp1198
F-185.25999450683594
aF122.97000122070312
aF-32.970001220703125
aF1.25
aa(lp1199
F-182.75999450683594
aF123.22000122070312
aF-32.970001220703125
aF1.25
aa(lp1200
F-179.50999450683594
aF124.47000122070312
aF-32.970001220703125
aF1.25
aasg10
S'dend[76]'
p1201
sg12
S'dend[74]'
p1202
sg14
(lp1203
ssS'dend[59]'
p1204
(dp1205
g4
(lp1206
(lp1207
F-198.3800048828125
aF118.22000122070312
aF-40.930000305175781
aF1.75
aa(lp1208
F-199.6300048828125
aF119.59999847412109
aF-42.069999694824219
aF1.75
aa(lp1209
F-200.75999450683594
aF121.22000122070312
aF-42.069999694824219
aF1.75
aa(lp1210
F-201.75999450683594
aF122.34999847412109
aF-42.069999694824219
aF1.75
aasg10
S'dend[59]'
p1211
sg12
S'dend[58]'
p1212
sg14
(lp1213
S'dend[63]'
p1214
aS'dend[60]'
p1215
assS'dend[85]'
p1216
(dp1217
g4
(lp1218
(lp1219
F-226.00999450683594
aF111.84999847412109
aF-53.439998626708984
aF1.3799999952316284
aa(lp1220
F-226.8800048828125
aF112.84999847412109
aF-53.439998626708984
aF1.3799999952316284
aa(lp1221
F-227.3800048828125
aF113.72000122070312
aF-53.439998626708984
aF1.3799999952316284
aa(lp1222
F-228.8800048828125
aF114.84999847412109
aF-53.439998626708984
aF1.3799999952316284
aa(lp1223
F-229.50999450683594
aF114.84999847412109
aF-55.709999084472656
aF1.3799999952316284
aasg10
S'dend[85]'
p1224
sg12
S'dend[84]'
p1225
sg14
(lp1226
S'dend[87]'
p1227
aS'dend[86]'
p1228
assS'dend[50]'
p1229
(dp1230
g4
(lp1231
(lp1232
F-173.1300048828125
aF113.84999847412109
aF-39.790000915527344
aF1.0789999961853027
aa(lp1233
F-175.75999450683594
aF113.59999847412109
aF-39.790000915527344
aF1.0789999961853027
aa(lp1234
F-177.25999450683594
aF113.72000122070312
aF-40.930000305175781
aF1.0789999961853027
aa(lp1235
F-181.75999450683594
aF113.84999847412109
aF-40.930000305175781
aF1.0789999961853027
aa(lp1236
F-184.00999450683594
aF114.22000122070312
aF-40.930000305175781
aF1.0789999961853027
aasg10
S'dend[50]'
p1237
sg12
S'dend[29]'
p1238
sg14
(lp1239
S'dend[52]'
p1240
aS'dend[51]'
p1241
assS'dend[18]'
p1242
(dp1243
g4
(lp1244
(lp1245
F-152.6300048828125
aF115.97000122070312
aF-29.559999465942383
aF0.66100001335144043
aa(lp1246
F-151.3800048828125
aF119.72000122070312
aF-29.559999465942383
aF0.66100001335144043
aa(lp1247
F-150.1300048828125
aF121.22000122070312
aF-29.559999465942383
aF0.66100001335144043
aa(lp1248
F-148.6300048828125
aF122.09999847412109
aF-29.559999465942383
aF0.66100001335144043
aasg10
S'dend[18]'
p1249
sg12
S'dend[17]'
p1250
sg14
(lp1251
S'dend[20]'
p1252
aS'dend[19]'
p1253
assS'dend[34]'
p1254
(dp1255
g4
(lp1256
(lp1257
F-189.00999450683594
aF125.58000183105469
aF-48.889999389648438
aF0.5
aa(lp1258
F-188.3800048828125
aF126.83000183105469
aF-48.889999389648438
aF0.5
aa(lp1259
F-187.50999450683594
aF127.94999694824219
aF-48.889999389648438
aF0.5
aa(lp1260
F-185.25999450683594
aF128.08000183105469
aF-48.889999389648438
aF0.5
aa(lp1261
F-183.25999450683594
aF128.44999694824219
aF-47.75
aF0.5
aa(lp1262
F-182.00999450683594
aF130.08000183105469
aF-47.75
aF0.5
aa(lp1263
F-181.8800048828125
aF131.69999694824219
aF-48.889999389648438
aF0.5
aasg10
S'dend[34]'
p1264
sg12
S'dend[32]'
p1265
sg14
(lp1266
ssS'dend[61]'
p1267
(dp1268
g4
(lp1269
(lp1270
F-216.50999450683594
aF126.84999847412109
aF-48.889999389648438
aF1.3600000143051147
aa(lp1271
F-217.8800048828125
aF126.72000122070312
aF-50.029998779296875
aF1.3600000143051147
aa(lp1272
F-219.6300048828125
aF127.09999847412109
aF-50.029998779296875
aF1.3600000143051147
aa(lp1273
F-221.1300048828125
aF127.72000122070312
aF-50.029998779296875
aF1.3600000143051147
aa(lp1274
F-222.1300048828125
aF128.72000122070312
aF-50.029998779296875
aF1.3600000143051147
aa(lp1275
F-223.1300048828125
aF129.60000610351562
aF-52.299999237060547
aF1.3600000143051147
aa(lp1276
F-225.1300048828125
aF131.60000610351562
aF-53.439998626708984
aF1.3600000143051147
aa(lp1277
F-225.6300048828125
aF132.72000122070312
aF-53.439998626708984
aF1.3600000143051147
aa(lp1278
F-226.6300048828125
aF133.85000610351562
aF-53.439998626708984
aF1.3600000143051147
aa(lp1279
F-227.6300048828125
aF135.10000610351562
aF-53.439998626708984
aF1.3600000143051147
aa(lp1280
F-228.00999450683594
aF136.85000610351562
aF-53.439998626708984
aF1.3600000143051147
aa(lp1281
F-227.25999450683594
aF137.85000610351562
aF-53.439998626708984
aF1.3600000143051147
aa(lp1282
F-226.25999450683594
aF138.35000610351562
aF-53.439998626708984
aF1.3600000143051147
aa(lp1283
F-224.6300048828125
aF138.10000610351562
aF-53.439998626708984
aF1.3600000143051147
aasg10
S'dend[61]'
p1284
sg12
S'dend[60]'
p1285
sg14
(lp1286
ssS'dend[69]'
p1287
(dp1288
g4
(lp1289
(lp1290
F-217.00999450683594
aF143.85000610351562
aF-48.889999389648438
aF0.87999999523162842
aa(lp1291
F-217.1300048828125
aF145.22000122070312
aF-48.889999389648438
aF0.87999999523162842
aa(lp1292
F-216.25999450683594
aF147.10000610351562
aF-48.889999389648438
aF0.87999999523162842
aasg10
S'dend[69]'
p1293
sg12
S'dend[67]'
p1294
sg14
(lp1295
ssS'dend[91]'
p1296
(dp1297
g4
(lp1298
(lp1299
F-234.75999450683594
aF102.97000122070312
aF-54.580001831054688
aF1.3799999952316284
aa(lp1300
F-236.1300048828125
aF103.84999847412109
aF-56.849998474121094
aF1.3799999952316284
aa(lp1301
F-238.25999450683594
aF104.72000122070312
aF-56.849998474121094
aF1.3799999952316284
aa(lp1302
F-239.1300048828125
aF104.84999847412109
aF-56.849998474121094
aF1.3799999952316284
aasg10
S'dend[91]'
p1303
sg12
S'dend[90]'
p1304
sg14
(lp1305
ss.