(dp1
S'dend[28]'
p2
F4.5553599999999997e-08
sS'dend[12]'
p3
F6.32375e-08
sS'dend[43]'
p4
F4.5781799999999995e-08
sS'dend[63]'
p5
F5.4262699999999991e-08
sS'dend[92]'
p6
F3.90507e-08
sS'dend[25]'
p7
F4.1515599999999998e-08
sS'dend[48]'
p8
F5.5318799999999996e-08
sS'dend[55]'
p9
F4.8146e-08
sS'dend[88]'
p10
F4.1571100000000001e-08
sS'dend[72]'
p11
F5.37184e-08
sS'dend[80]'
p12
F4.7266399999999996e-08
sS'dend[3]'
p13
F3.9908499999999996e-08
sS'dend[13]'
p14
F3.9592399999999997e-08
sS'dend[23]'
p15
F2.54803e-08
sS'dend[42]'
p16
F4.6955099999999998e-08
sS'dend[98]'
p17
F4.61822e-08
sS'dend[74]'
p18
F5.3489700000000002e-08
sS'dend[24]'
p19
F5.3883899999999996e-08
sS'dend[93]'
p20
F5.16037e-08
sS'dend[32]'
p21
F4.3876400000000004e-08
sS'dend[52]'
p22
F4.23865e-08
sS'dend[73]'
p23
F4.4041200000000001e-08
sS'dend[83]'
p24
F4.35327e-08
sS'dend[2]'
p25
F4.60023e-08
sS'dend[38]'
p26
F3.9546299999999999e-08
sS'dend[9]'
p27
F5.7417999999999992e-08
sS'dend[30]'
p28
F4.2743399999999996e-08
sS'dend[65]'
p29
F4.7653599999999996e-08
sS'dend[89]'
p30
F4.32905e-08
sS'dend[41]'
p31
F4.9146599999999995e-08
sS'dend[14]'
p32
F4.0641599999999999e-08
sS'dend[37]'
p33
F4.3764900000000003e-08
sS'dend[27]'
p34
F5.28544e-08
sS'dend[46]'
p35
F5.6136699999999992e-08
sS'dend[94]'
p36
F4.32462e-08
sS'dend[1]'
p37
F4.7480899999999995e-08
sS'dend[86]'
p38
F4.3689799999999999e-08
sS'dend[78]'
p39
F4.2280599999999998e-08
sS'dend[8]'
p40
F4.4456999999999999e-08
sS'dend[39]'
p41
F4.0697399999999999e-08
sS'dend[64]'
p42
F3.0804100000000001e-08
sS'dend[31]'
p43
F4.4588799999999999e-08
sS'dend[15]'
p44
F4.42557e-08
sS'dend[40]'
p45
F5.2112499999999998e-08
sS'dend[49]'
p46
F4.3240499999999996e-08
sS'dend[26]'
p47
F4.1955499999999995e-08
sS'dend[54]'
p48
F4.7790799999999997e-08
sS'dend[71]'
p49
F4.4694099999999995e-08
sS'dend[0]'
p50
F4.6821399999999995e-08
sS'dend[79]'
p51
F5.0372100000000001e-08
sS'dend[95]'
p52
F4.2697199999999993e-08
sS'dend[81]'
p53
F5.1321499999999994e-08
sS'dend[7]'
p54
F4.3513899999999996e-08
sS'dend[16]'
p55
F4.3712199999999999e-08
sS'dend[56]'
p56
F4.8998399999999995e-08
sS'dend[77]'
p57
F4.5594099999999997e-08
sS'dend[67]'
p58
F5.3197700000000001e-08
sS'dend[100]'
p59
F4.2866599999999994e-08
sS'dend[35]'
p60
F4.9367299999999998e-08
sS'dend[51]'
p61
F4.3646200000000003e-08
sS'dend[84]'
p62
F4.74887e-08
sS'dend[19]'
p63
F4.7561300000000001e-08
sS'dend[21]'
p64
F3.2791800000000003e-08
sS'dend[44]'
p65
F4.83549e-08
sS'dend[60]'
p66
F4.7278000000000002e-08
sS'dend[68]'
p67
F5.3310900000000001e-08
sS'dend[96]'
p68
F5.1279799999999996e-08
sS'dend[6]'
p69
F4.2046899999999994e-08
sS'dend[70]'
p70
F4.5480299999999997e-08
sS'dend[57]'
p71
F4.04742e-08
sS'dend[17]'
p72
F5.5699999999999996e-08
sS'dend[66]'
p73
F2.47727e-08
sS'dend[36]'
p74
F4.0954200000000002e-08
sS'dend[20]'
p75
F3.2791800000000003e-08
sS'dend[47]'
p76
F4.5266699999999995e-08
sS'dend[97]'
p77
F4.3663399999999994e-08
sS'dend[87]'
p78
F4.4297399999999998e-08
sS'dend[10]'
p79
F3.9405799999999998e-08
sS'dend[99]'
p80
F3.6189799999999998e-08
sS'dend[45]'
p81
F4.4486499999999999e-08
sS'dend[22]'
p82
F3.9182699999999998e-08
sS'dend[58]'
p83
F4.3927699999999998e-08
sS'dend[75]'
p84
F4.9050499999999993e-08
sS'dend[53]'
p85
F4.7350000000000004e-08
sS'dend[33]'
p86
F3.7053699999999999e-08
sS'dend[62]'
p87
F4.4063600000000002e-08
sS'dend[82]'
p88
F4.4375099999999997e-08
sS'dend[90]'
p89
F4.4593399999999996e-08
sS'dend[5]'
p90
F4.8774099999999996e-08
sS'dend[11]'
p91
F4.3256299999999997e-08
sS'dend[29]'
p92
F4.1827499999999995e-08
sS'dend[4]'
p93
F3.7780300000000001e-08
sS'dend[76]'
p94
F4.3301499999999999e-08
sS'dend[59]'
p95
F5.2002499999999999e-08
sS'dend[85]'
p96
F5.1596199999999998e-08
sS'dend[50]'
p97
F3.81834e-08
sS'dend[18]'
p98
F6.6555100000000008e-08
sS'dend[34]'
p99
F3.9263699999999997e-08
sS'dend[61]'
p100
F4.1312699999999998e-08
sS'dend[69]'
p101
F4.3252499999999996e-08
sS'dend[91]'
p102
F4.4238199999999993e-08
s.