(dp1
S'dend[28]'
p2
F4.0297399999999995e-08
sS'dend[12]'
p3
F2.2995499999999999e-08
sS'dend[43]'
p4
F4.8109699999999996e-08
sS'dend[63]'
p5
F4.8233499999999993e-08
sS'dend[92]'
p6
F6.0568399999999999e-08
sS'dend[25]'
p7
F4.9465399999999995e-08
sS'dend[48]'
p8
F5.02027e-08
sS'dend[55]'
p9
F4.4335899999999995e-08
sS'dend[88]'
p10
F4.7216599999999997e-08
sS'dend[72]'
p11
F3.7369299999999998e-08
sS'dend[80]'
p12
F4.8271999999999997e-08
sS'dend[3]'
p13
F4.3012500000000002e-08
sS'dend[13]'
p14
F3.9592399999999997e-08
sS'dend[23]'
p15
F5.3508699999999997e-08
sS'dend[42]'
p16
F4.8729599999999998e-08
sS'dend[98]'
p17
F4.9683299999999999e-08
sS'dend[74]'
p18
F4.2791799999999993e-08
sS'dend[24]'
p19
F4.4196899999999997e-08
sS'dend[93]'
p20
F3.6394199999999999e-08
sS'dend[32]'
p21
F4.1392800000000001e-08
sS'dend[52]'
p22
F4.6951199999999999e-08
sS'dend[73]'
p23
F4.7927200000000001e-08
sS'dend[83]'
p24
F4.3893899999999997e-08
sS'dend[2]'
p25
F4.7842400000000001e-08
sS'dend[38]'
p26
F4.3373299999999997e-08
sS'dend[9]'
p27
F4.8010499999999998e-08
sS'dend[30]'
p28
F4.5175899999999995e-08
sS'dend[65]'
p29
F4.9119799999999995e-08
sS'dend[89]'
p30
F4.7155799999999998e-08
sS'dend[41]'
p31
F4.1146000000000003e-08
sS'dend[14]'
p32
F5.2406300000000003e-08
sS'dend[37]'
p33
F3.6041700000000003e-08
sS'dend[27]'
p34
F4.3476999999999999e-08
sS'dend[46]'
p35
F4.9290800000000004e-08
sS'dend[94]'
p36
F4.7846800000000001e-08
sS'dend[1]'
p37
F4.1614499999999999e-08
sS'dend[86]'
p38
F4.9151000000000001e-08
sS'dend[78]'
p39
F4.6095399999999999e-08
sS'dend[8]'
p40
F3.6485400000000001e-08
sS'dend[39]'
p41
F4.8249499999999998e-08
sS'dend[64]'
p42
F4.0045400000000001e-08
sS'dend[31]'
p43
F3.4028299999999995e-08
sS'dend[15]'
p44
F5.3876499999999999e-08
sS'dend[40]'
p45
F4.5635199999999996e-08
sS'dend[49]'
p46
F3.9075199999999995e-08
sS'dend[26]'
p47
F4.9708200000000002e-08
sS'dend[54]'
p48
F4.8786399999999999e-08
sS'dend[71]'
p49
F4.7634500000000002e-08
sS'dend[0]'
p50
F4.7000100000000003e-08
sS'dend[79]'
p51
F4.6628199999999997e-08
sS'dend[95]'
p52
F3.8365599999999999e-08
sS'dend[81]'
p53
F4.1773299999999996e-08
sS'dend[7]'
p54
F4.3513899999999996e-08
sS'dend[16]'
p55
F3.8855300000000003e-08
sS'dend[56]'
p56
F4.4561499999999992e-08
sS'dend[77]'
p57
F5.3960000000000001e-08
sS'dend[67]'
p58
F4.6333499999999996e-08
sS'dend[100]'
p59
F4.2866599999999994e-08
sS'dend[35]'
p60
F4.2201099999999994e-08
sS'dend[51]'
p61
F4.0432999999999996e-08
sS'dend[84]'
p62
F4.5884399999999998e-08
sS'dend[19]'
p63
F5.2481399999999994e-08
sS'dend[21]'
p64
F3.8864299999999993e-08
sS'dend[44]'
p65
F4.2437999999999993e-08
sS'dend[60]'
p66
F4.2473299999999996e-08
sS'dend[68]'
p67
F3.1251199999999997e-08
sS'dend[96]'
p68
F3.8972699999999998e-08
sS'dend[6]'
p69
F4.4221700000000001e-08
sS'dend[70]'
p70
F4.97111e-08
sS'dend[57]'
p71
F5.2257899999999998e-08
sS'dend[17]'
p72
F4.2084399999999997e-08
sS'dend[66]'
p73
F6.606059999999999e-08
sS'dend[36]'
p74
F5.3584899999999994e-08
sS'dend[20]'
p75
F3.8864299999999993e-08
sS'dend[47]'
p76
F5.3278499999999996e-08
sS'dend[97]'
p77
F4.5409900000000002e-08
sS'dend[87]'
p78
F4.7136999999999994e-08
sS'dend[10]'
p79
F3.7918700000000001e-08
sS'dend[99]'
p80
F5.0665699999999996e-08
sS'dend[45]'
p81
F4.8478800000000003e-08
sS'dend[22]'
p82
F3.9182699999999998e-08
sS'dend[58]'
p83
F4.4137899999999996e-08
sS'dend[75]'
p84
F4.9312799999999995e-08
sS'dend[53]'
p85
F4.3351599999999995e-08
sS'dend[33]'
p86
F3.7935899999999998e-08
sS'dend[62]'
p87
F4.2888599999999999e-08
sS'dend[82]'
p88
F4.6292499999999996e-08
sS'dend[90]'
p89
F4.5130699999999999e-08
sS'dend[5]'
p90
F5.2205499999999997e-08
sS'dend[11]'
p91
F4.9794999999999997e-08
sS'dend[29]'
p92
F4.93124e-08
sS'dend[4]'
p93
F4.3177499999999997e-08
sS'dend[76]'
p94
F4.5707200000000004e-08
sS'dend[59]'
p95
F4.8045799999999995e-08
sS'dend[85]'
p96
F5.4113099999999995e-08
sS'dend[50]'
p97
F4.8206600000000001e-08
sS'dend[18]'
p98
F5.91601e-08
sS'dend[34]'
p99
F4.5037799999999998e-08
sS'dend[61]'
p100
F4.6173099999999998e-08
sS'dend[69]'
p101
F5.3082699999999997e-08
sS'dend[91]'
p102
F4.3546999999999999e-08
s.